; Function Attrs: inlinehint nofree norecurse nosync nounwind memory(none) uwtable
define internal fastcc i64 @x64_powmod(i64 noundef %0, i64 noundef %1, i64 noundef %2) unnamed_addr #3 {
  %.not35 = icmp eq i64 %1, 0
  br i1 %.not35, label %._crit_edge, label %.lr.ph

.lr.ph:                                           ; preds = %3
  %4 = and i64 %2, 4294967296
  %.not.i = icmp eq i64 %4, 0
  %5 = and i64 %2, 17179869184
  %.not62.i = icmp eq i64 %5, 0
  br label %6

6:                                                ; preds = %.lr.ph, %x64_mulmod.exit34
  %.038 = phi i64 [ 1, %.lr.ph ], [ %.1, %x64_mulmod.exit34 ]
  %.01037 = phi i64 [ %0, %.lr.ph ], [ %spec.select108.i26, %x64_mulmod.exit34 ]
  %.01136 = phi i64 [ %1, %.lr.ph ], [ %114, %x64_mulmod.exit34 ]
  %7 = and i64 %.01136, 1
  %.not12 = icmp eq i64 %7, 0
  br i1 %.not12, label %._crit_edge39, label %8

._crit_edge39:                                    ; preds = %6
  %.pre = zext i64 %.01037 to i128
  br label %62

8:                                                ; preds = %6
  %9 = zext i64 %.038 to i128
  %10 = zext i64 %.01037 to i128
  %11 = mul nuw i128 %9, %10
  %12 = lshr i128 %11, 64
  %13 = trunc nuw i128 %12 to i64
  %14 = trunc i128 %11 to i64
  br i1 %.not.i, label %23, label %15

15:                                               ; preds = %8
  %16 = lshr i64 %13, 32
  %17 = sub i64 %14, %13
  %18 = icmp ugt i64 %13, %14
  %19 = sext i1 %18 to i64
  %spec.select.i = add nsw i64 %16, %19
  %20 = shl i64 %13, 32
  %21 = add i64 %20, %17
  %22 = icmp ult i64 %21, %20
  br label %x64_mulmod.exit

23:                                               ; preds = %8
  %24 = sub i64 %14, %13
  %25 = icmp ugt i64 %13, %14
  %26 = sext i1 %25 to i64
  br i1 %.not62.i, label %40, label %27

27:                                               ; preds = %23
  %28 = lshr i64 %13, 30
  %spec.select104.i = add nsw i64 %28, %26
  %29 = shl i64 %13, 34
  %30 = add i64 %29, %24
  %31 = icmp ult i64 %30, %29
  %32 = zext i1 %31 to i64
  %.5.i = add nsw i64 %spec.select104.i, %32
  %33 = lshr i64 %.5.i, 30
  %34 = sub i64 %30, %.5.i
  %35 = icmp ugt i64 %.5.i, %30
  %36 = sext i1 %35 to i64
  %.6.i = add nsw i64 %33, %36
  %37 = shl i64 %.5.i, 34
  %38 = add i64 %37, %34
  %39 = icmp ult i64 %38, %37
  br label %x64_mulmod.exit

40:                                               ; preds = %23
  %41 = lshr i64 %13, 24
  %spec.select105.i = add nsw i64 %41, %26
  %42 = shl i64 %13, 40
  %43 = add i64 %42, %24
  %44 = icmp ult i64 %43, %42
  %45 = zext i1 %44 to i64
  %.11.i = add nsw i64 %spec.select105.i, %45
  %46 = lshr i64 %.11.i, 24
  %47 = sub i64 %43, %.11.i
  %48 = icmp ugt i64 %.11.i, %43
  %49 = sext i1 %48 to i64
  %.12.i = add nsw i64 %46, %49
  %50 = shl i64 %.11.i, 40
  %51 = add i64 %50, %47
  %52 = icmp ult i64 %51, %50
  br label %x64_mulmod.exit

x64_mulmod.exit:                                  ; preds = %15, %27, %40
  %.sink128.i = phi i1 [ %52, %40 ], [ %39, %27 ], [ %22, %15 ]
  %.12.sink.i = phi i64 [ %.12.i, %40 ], [ %.6.i, %27 ], [ %spec.select.i, %15 ]
  %.sink126.i = phi i64 [ 24, %40 ], [ 30, %27 ], [ 32, %15 ]
  %.sink123.i = phi i64 [ %51, %40 ], [ %38, %27 ], [ %21, %15 ]
  %.sink.i = phi i64 [ 40, %40 ], [ 34, %27 ], [ 32, %15 ]
  %53 = zext i1 %.sink128.i to i64
  %.13.i = add nsw i64 %.12.sink.i, %53
  %54 = lshr i64 %.13.i, %.sink126.i
  %55 = sub i64 %.sink123.i, %.13.i
  %56 = icmp ugt i64 %.13.i, %.sink123.i
  %57 = sext i1 %56 to i64
  %.14.i = add nsw i64 %54, %57
  %58 = shl i64 %.13.i, %.sink.i
  %59 = add i64 %58, %55
  %60 = icmp ult i64 %59, %58
  %.neg110.i = sext i1 %60 to i64
  %.not63.i = icmp eq i64 %.14.i, %.neg110.i
  %.not64.i = icmp ult i64 %59, %2
  %or.cond70.i = select i1 %.not63.i, i1 %.not64.i, i1 false
  %61 = select i1 %or.cond70.i, i64 0, i64 %2
  %spec.select108.i = sub i64 %59, %61
  br label %62

62:                                               ; preds = %._crit_edge39, %x64_mulmod.exit
  %.pre-phi = phi i128 [ %.pre, %._crit_edge39 ], [ %10, %x64_mulmod.exit ]
  %.1 = phi i64 [ %.038, %._crit_edge39 ], [ %spec.select108.i, %x64_mulmod.exit ]
  %63 = mul nuw i128 %.pre-phi, %.pre-phi
  %64 = lshr i128 %63, 64
  %65 = trunc nuw i128 %64 to i64
  %66 = trunc i128 %63 to i64
  br i1 %.not.i, label %75, label %67

67:                                               ; preds = %62
  %68 = lshr i64 %65, 32
  %69 = sub i64 %66, %65
  %70 = icmp ugt i64 %65, %66
  %71 = sext i1 %70 to i64
  %spec.select.i14 = add nsw i64 %68, %71
  %72 = shl i64 %65, 32
  %73 = add i64 %72, %69
  %74 = icmp ult i64 %73, %72
  br label %x64_mulmod.exit34

75:                                               ; preds = %62
  %76 = sub i64 %66, %65
  %77 = icmp ugt i64 %65, %66
  %78 = sext i1 %77 to i64
  br i1 %.not62.i, label %92, label %79

79:                                               ; preds = %75
  %80 = lshr i64 %65, 30
  %spec.select104.i28 = add nsw i64 %80, %78
  %81 = shl i64 %65, 34
  %82 = add i64 %81, %76
  %83 = icmp ult i64 %82, %81
  %84 = zext i1 %83 to i64
  %.5.i29 = add nsw i64 %spec.select104.i28, %84
  %85 = lshr i64 %.5.i29, 30
  %86 = sub i64 %82, %.5.i29
  %87 = icmp ugt i64 %.5.i29, %82
  %88 = sext i1 %87 to i64
  %.6.i30 = add nsw i64 %85, %88
  %89 = shl i64 %.5.i29, 34
  %90 = add i64 %89, %86
  %91 = icmp ult i64 %90, %89
  br label %x64_mulmod.exit34

92:                                               ; preds = %75
  %93 = lshr i64 %65, 24
  %spec.select105.i31 = add nsw i64 %93, %78
  %94 = shl i64 %65, 40
  %95 = add i64 %94, %76
  %96 = icmp ult i64 %95, %94
  %97 = zext i1 %96 to i64
  %.11.i32 = add nsw i64 %spec.select105.i31, %97
  %98 = lshr i64 %.11.i32, 24
  %99 = sub i64 %95, %.11.i32
  %100 = icmp ugt i64 %.11.i32, %95
  %101 = sext i1 %100 to i64
  %.12.i33 = add nsw i64 %98, %101
  %102 = shl i64 %.11.i32, 40
  %103 = add i64 %102, %99
  %104 = icmp ult i64 %103, %102
  br label %x64_mulmod.exit34

x64_mulmod.exit34:                                ; preds = %67, %79, %92
  %.sink128.i15 = phi i1 [ %104, %92 ], [ %91, %79 ], [ %74, %67 ]
  %.12.sink.i16 = phi i64 [ %.12.i33, %92 ], [ %.6.i30, %79 ], [ %spec.select.i14, %67 ]
  %.sink126.i17 = phi i64 [ 24, %92 ], [ 30, %79 ], [ 32, %67 ]
  %.sink123.i18 = phi i64 [ %103, %92 ], [ %90, %79 ], [ %73, %67 ]
  %.sink.i19 = phi i64 [ 40, %92 ], [ 34, %79 ], [ 32, %67 ]
  %105 = zext i1 %.sink128.i15 to i64
  %.13.i20 = add nsw i64 %.12.sink.i16, %105
  %106 = lshr i64 %.13.i20, %.sink126.i17
  %107 = sub i64 %.sink123.i18, %.13.i20
  %108 = icmp ugt i64 %.13.i20, %.sink123.i18
  %109 = sext i1 %108 to i64
  %.14.i21 = add nsw i64 %106, %109
  %110 = shl i64 %.13.i20, %.sink.i19
  %111 = add i64 %110, %107
  %112 = icmp ult i64 %111, %110
  %.neg110.i22 = sext i1 %112 to i64
  %.not63.i23 = icmp eq i64 %.14.i21, %.neg110.i22
  %.not64.i24 = icmp ult i64 %111, %2
  %or.cond70.i25 = select i1 %.not63.i23, i1 %.not64.i24, i1 false
  %113 = select i1 %or.cond70.i25, i64 0, i64 %2
  %spec.select108.i26 = sub i64 %111, %113
  %114 = lshr i64 %.01136, 1
  %.not = icmp ult i64 %.01136, 2
  br i1 %.not, label %._crit_edge, label %6, !llvm.loop !14

._crit_edge:                                      ; preds = %x64_mulmod.exit34, %3
  %.0.lcssa = phi i64 [ 1, %3 ], [ %.1, %x64_mulmod.exit34 ]
  ret i64 %.0.lcssa
}